target datalayout = "e-m:e-p270:32:32-p271:32:32-p272:64:64-i64:64-i128:128-f80:128-n8:16:32:64-S128"
target triple = "x86_64-pc-linux-gnu"

%struct.ffdata_t = type { ptr, i32 }

; Function Attrs: null_pointer_is_valid sspstrong uwtable
define ptr @proto_find_first_finfo(ptr noundef %0, i32 noundef %1) #0 {
  %3 = alloca ptr, align 8
  %4 = alloca i32, align 4
  %5 = alloca %struct.ffdata_t, align 8
  store ptr %0, ptr %3, align 8
  store i32 %1, ptr %4, align 4
  call void @llvm.lifetime.start.p0(i64 16, ptr %5) #24
  %6 = call ptr @g_ptr_array_new()
  %7 = getelementptr inbounds nuw %struct.ffdata_t, ptr %5, i32 0, i32 0
  store ptr %6, ptr %7, align 8
  %8 = load i32, ptr %4, align 4
  %9 = getelementptr inbounds nuw %struct.ffdata_t, ptr %5, i32 0, i32 1
  store i32 %8, ptr %9, align 8
  %10 = load ptr, ptr %3, align 8
  %11 = call zeroext i1 @proto_tree_traverse_pre_order(ptr noundef %10, ptr noundef @find_first_finfo, ptr noundef %5)
  %12 = getelementptr inbounds nuw %struct.ffdata_t, ptr %5, i32 0, i32 0
  %13 = load ptr, ptr %12, align 8
  call void @llvm.lifetime.end.p0(i64 16, ptr %5) #24
  ret ptr %13
}